; Function Attrs: inlinehint mustprogress nofree norecurse nosync nounwind willreturn memory(read, argmem: readwrite, inaccessiblemem: none) uwtable
define internal fastcc i64 @get_se_coef(ptr noundef nonnull captures(none) %0, ptr noundef readonly captures(none) %1) unnamed_addr #5 {
  %3 = getelementptr inbounds nuw i8, ptr %1, i64 7
  %4 = load i8, ptr %3, align 1, !tbaa !57
  switch i8 %4, label %151 [
    i8 0, label %5
    i8 1, label %116
  ]

5:                                                ; preds = %2
  %.sroa.0.0.copyload.i.i.i = load ptr, ptr %0, align 8, !tbaa !113
  %.sroa.46.0..sroa_idx.i.i.i = getelementptr inbounds nuw i8, ptr %0, i64 16
  %.sroa.46.0.copyload.i.i.i = load i32, ptr %.sroa.46.0..sroa_idx.i.i.i, align 8, !tbaa !83
  %.sroa.77.0..sroa_idx.i.i.i = getelementptr inbounds nuw i8, ptr %0, i64 24
  %.sroa.77.0.copyload.i.i.i = load i32, ptr %.sroa.77.0..sroa_idx.i.i.i, align 8, !tbaa !83
  %6 = lshr i32 %.sroa.46.0.copyload.i.i.i, 3
  %7 = zext nneg i32 %6 to i64
  %8 = getelementptr inbounds nuw i8, ptr %.sroa.0.0.copyload.i.i.i, i64 %7
  %9 = load i32, ptr %8, align 1, !tbaa !45
  %10 = tail call i32 @llvm.bswap.i32(i32 %9)
  %11 = and i32 %.sroa.46.0.copyload.i.i.i, 7
  %12 = shl i32 %10, %11
  %13 = and i32 %12, -65536
  %14 = add i32 %.sroa.46.0.copyload.i.i.i, 16
  %15 = tail call i32 @llvm.umin.i32(i32 %.sroa.77.0.copyload.i.i.i, i32 %14)
  %16 = lshr i32 %15, 3
  %17 = zext nneg i32 %16 to i64
  %18 = getelementptr inbounds nuw i8, ptr %.sroa.0.0.copyload.i.i.i, i64 %17
  %19 = load i32, ptr %18, align 1, !tbaa !45
  %20 = tail call i32 @llvm.bswap.i32(i32 %19)
  %21 = and i32 %15, 7
  %22 = shl i32 %20, %21
  %23 = lshr i32 %22, 16
  %24 = or disjoint i32 %23, %13
  %.not.i.i.i = icmp ult i32 %12, 65536
  %25 = lshr i32 %12, 16
  %spec.select.i.i.i = select i1 %.not.i.i.i, i32 %24, i32 %25
  %spec.select12.i.i.i = select i1 %.not.i.i.i, i32 0, i32 16
  %.not11.i.i.i = icmp samesign ult i32 %spec.select.i.i.i, 256
  %26 = lshr i32 %spec.select.i.i.i, 8
  %27 = or disjoint i32 %spec.select12.i.i.i, 8
  %.110.i.i.i = select i1 %.not11.i.i.i, i32 %spec.select.i.i.i, i32 %26
  %.1.i.i.i = select i1 %.not11.i.i.i, i32 %spec.select12.i.i.i, i32 %27
  %28 = zext nneg i32 %.110.i.i.i to i64
  %29 = getelementptr inbounds nuw [256 x i8], ptr @ff_log2_tab, i64 0, i64 %28
  %30 = load i8, ptr %29, align 1, !tbaa !45
  %31 = zext i8 %30 to i32
  %32 = add nuw nsw i32 %.1.i.i.i, %31
  %33 = sub nsw i32 31, %32
  %34 = sub nsw i32 0, %.sroa.46.0.copyload.i.i.i
  %35 = sub nsw i32 %.sroa.77.0.copyload.i.i.i, %.sroa.46.0.copyload.i.i.i
  %36 = icmp slt i32 %33, %34
  %..i.i.i.i = tail call i32 @llvm.smin.i32(i32 range(i32 -2147483616, -2147483648) %33, i32 %35)
  %.0.i.i.i.i = select i1 %36, i32 %34, i32 %..i.i.i.i
  %37 = add nsw i32 %.0.i.i.i.i, %.sroa.46.0.copyload.i.i.i
  store i32 %37, ptr %.sroa.46.0..sroa_idx.i.i.i, align 8, !tbaa !47
  %.not.i5.i.i = icmp eq i32 %32, 32
  br i1 %.not.i5.i.i, label %get_se_golomb_long.exit, label %38

38:                                               ; preds = %5
  %39 = icmp samesign ugt i32 %32, 6
  %40 = lshr i32 %37, 3
  %41 = zext nneg i32 %40 to i64
  %42 = getelementptr inbounds nuw i8, ptr %.sroa.0.0.copyload.i.i.i, i64 %41
  %43 = load i32, ptr %42, align 1, !tbaa !45
  %44 = tail call i32 @llvm.bswap.i32(i32 %43)
  %45 = and i32 %37, 7
  %46 = shl i32 %44, %45
  br i1 %39, label %47, label %51

47:                                               ; preds = %38
  %48 = lshr i32 %46, %32
  %reass.sub = sub i32 %37, %32
  %49 = add i32 %reass.sub, 32
  %50 = tail call i32 @llvm.umin.i32(i32 %.sroa.77.0.copyload.i.i.i, i32 %49)
  store i32 %50, ptr %.sroa.46.0..sroa_idx.i.i.i, align 8, !tbaa !47
  br label %get_se_golomb_long.exit

51:                                               ; preds = %38
  %52 = lshr i32 %46, 16
  %53 = add i32 %37, 16
  %54 = tail call i32 @llvm.umin.i32(i32 %.sroa.77.0.copyload.i.i.i, i32 %53)
  store i32 %54, ptr %.sroa.46.0..sroa_idx.i.i.i, align 8, !tbaa !47
  %55 = sub nuw nsw i32 16, %32
  %56 = shl nuw i32 %52, %55
  %57 = lshr i32 %54, 3
  %58 = zext nneg i32 %57 to i64
  %59 = getelementptr inbounds nuw i8, ptr %.sroa.0.0.copyload.i.i.i, i64 %58
  %60 = load i32, ptr %59, align 1, !tbaa !45
  %61 = tail call i32 @llvm.bswap.i32(i32 %60)
  %62 = and i32 %54, 7
  %63 = shl i32 %61, %62
  %64 = or disjoint i32 %31, 16
  %65 = lshr i32 %63, %64
  %66 = add i32 %54, %55
  %67 = tail call i32 @llvm.umin.i32(i32 %.sroa.77.0.copyload.i.i.i, i32 %66)
  store i32 %67, ptr %.sroa.46.0..sroa_idx.i.i.i, align 8, !tbaa !47
  %68 = or i32 %65, %56
  br label %get_se_golomb_long.exit

get_se_golomb_long.exit:                          ; preds = %5, %47, %51
  %69 = phi i32 [ %50, %47 ], [ %67, %51 ], [ %37, %5 ]
  %.0.i.i.i = phi i32 [ %48, %47 ], [ %68, %51 ], [ 0, %5 ]
  %70 = add i32 %.0.i.i.i, -1
  %71 = and i32 %70, 1
  %72 = add nsw i32 %71, -1
  %73 = lshr i32 %70, 1
  %74 = xor i32 %72, %73
  %75 = add i32 %74, 1
  %76 = sext i32 %75 to i64
  %77 = getelementptr inbounds nuw i8, ptr %1, i64 8
  %78 = load i8, ptr %77, align 2, !tbaa !58
  %79 = zext i8 %78 to i32
  %.not.i = icmp eq i8 %78, 0
  br i1 %.not.i, label %get_bits_long.exit, label %80

80:                                               ; preds = %get_se_golomb_long.exit
  %81 = icmp ult i8 %78, 26
  %82 = lshr i32 %69, 3
  %83 = zext nneg i32 %82 to i64
  %84 = getelementptr inbounds nuw i8, ptr %.sroa.0.0.copyload.i.i.i, i64 %83
  %85 = load i32, ptr %84, align 1, !tbaa !45
  %86 = tail call i32 @llvm.bswap.i32(i32 %85)
  %87 = and i32 %69, 7
  %88 = shl i32 %86, %87
  br i1 %81, label %89, label %94

89:                                               ; preds = %80
  %90 = sub nuw nsw i32 32, %79
  %91 = lshr i32 %88, %90
  %92 = add i32 %69, %79
  %93 = tail call i32 @llvm.umin.i32(i32 %.sroa.77.0.copyload.i.i.i, i32 %92)
  store i32 %93, ptr %.sroa.46.0..sroa_idx.i.i.i, align 8, !tbaa !47
  br label %get_bits_long.exit

94:                                               ; preds = %80
  %95 = lshr i32 %88, 16
  %96 = add i32 %69, 16
  %97 = tail call i32 @llvm.umin.i32(i32 %.sroa.77.0.copyload.i.i.i, i32 %96)
  store i32 %97, ptr %.sroa.46.0..sroa_idx.i.i.i, align 8, !tbaa !47
  %98 = add nsw i32 %79, -16
  %99 = shl i32 %95, %98
  %100 = lshr i32 %97, 3
  %101 = zext nneg i32 %100 to i64
  %102 = getelementptr inbounds nuw i8, ptr %.sroa.0.0.copyload.i.i.i, i64 %101
  %103 = load i32, ptr %102, align 1, !tbaa !45
  %104 = tail call i32 @llvm.bswap.i32(i32 %103)
  %105 = and i32 %97, 7
  %106 = shl i32 %104, %105
  %107 = sub nsw i32 48, %79
  %108 = lshr i32 %106, %107
  %109 = add i32 %97, %98
  %110 = tail call i32 @llvm.umin.i32(i32 %.sroa.77.0.copyload.i.i.i, i32 %109)
  store i32 %110, ptr %.sroa.46.0..sroa_idx.i.i.i, align 8, !tbaa !47
  %111 = or i32 %108, %99
  br label %get_bits_long.exit

get_bits_long.exit:                               ; preds = %get_se_golomb_long.exit, %89, %94
  %.0.i = phi i32 [ %91, %89 ], [ %111, %94 ], [ 0, %get_se_golomb_long.exit ]
  %112 = zext nneg i8 %78 to i64
  %113 = shl i64 %76, %112
  %114 = zext i32 %.0.i to i64
  %115 = or i64 %113, %114
  br label %151

116:                                              ; preds = %2
  %117 = getelementptr inbounds nuw i8, ptr %0, i64 16
  %118 = load i32, ptr %117, align 8, !tbaa !47
  %119 = getelementptr inbounds nuw i8, ptr %0, i64 24
  %120 = load i32, ptr %119, align 8, !tbaa !43
  %121 = load ptr, ptr %0, align 8, !tbaa !40
  %122 = lshr i32 %118, 3
  %123 = zext nneg i32 %122 to i64
  %124 = getelementptr inbounds nuw i8, ptr %121, i64 %123
  %125 = load i32, ptr %124, align 1, !tbaa !45
  %126 = tail call i32 @llvm.bswap.i32(i32 %125)
  %127 = and i32 %118, 7
  %128 = shl i32 %126, %127
  %129 = and i32 %128, -65536
  %130 = add i32 %118, 16
  %131 = tail call i32 @llvm.umin.i32(i32 %120, i32 %130)
  store i32 %131, ptr %117, align 8, !tbaa !47
  %132 = lshr i32 %131, 3
  %133 = zext nneg i32 %132 to i64
  %134 = getelementptr inbounds nuw i8, ptr %121, i64 %133
  %135 = load i32, ptr %134, align 1, !tbaa !45
  %136 = tail call i32 @llvm.bswap.i32(i32 %135)
  %137 = and i32 %131, 7
  %138 = shl i32 %136, %137
  %139 = lshr i32 %138, 16
  %140 = add i32 %131, 16
  %141 = tail call i32 @llvm.umin.i32(i32 %120, i32 %140)
  store i32 %141, ptr %117, align 8, !tbaa !47
  %142 = or disjoint i32 %139, %129
  %143 = bitcast i32 %142 to float
  %144 = getelementptr inbounds nuw i8, ptr %1, i64 8
  %145 = load i8, ptr %144, align 2, !tbaa !58
  %146 = zext nneg i8 %145 to i64
  %147 = shl nuw i64 1, %146
  %148 = sitofp i64 %147 to float
  %149 = fmul nsz float %143, %148
  %150 = fptosi float %149 to i64
  br label %151

151:                                              ; preds = %2, %116, %get_bits_long.exit
  %.0 = phi i64 [ %150, %116 ], [ %115, %get_bits_long.exit ], [ 0, %2 ]
  ret i64 %.0
}